; Function Attrs: nounwind uwtable
define internal void @_toggle_sort_button_callback(ptr readnone captures(none) %0, ptr noundef readonly captures(none) %1) #1 {
  %3 = load ptr, ptr getelementptr inbounds nuw (i8, ptr @darktable, i64 104), align 8, !tbaa !125
  %4 = getelementptr inbounds nuw i8, ptr %3, i64 96
  %5 = load i32, ptr %4, align 8, !tbaa !126
  %.not = icmp eq i32 %5, 0
  br i1 %.not, label %6, label %33

6:                                                ; preds = %2
  %7 = tail call i32 @dt_conf_get_bool(ptr noundef nonnull @.str.90) #16
  %.not3 = icmp eq i32 %7, 0
  %8 = zext i1 %.not3 to i32
  tail call void @dt_conf_set_bool(ptr noundef nonnull @.str.90, i32 noundef %8) #16
  %9 = getelementptr i8, ptr %1, i64 280
  %.val5 = load ptr, ptr %9, align 8, !tbaa !6
  tail call fastcc void @_update_layout(ptr %.val5)
  %.val4 = load ptr, ptr %9, align 8, !tbaa !6
  %10 = getelementptr inbounds nuw i8, ptr %.val4, i64 1200
  %11 = load i32, ptr %10, align 8, !tbaa !54
  %.not8.i = icmp eq i32 %11, 0
  br i1 %.not8.i, label %12, label %_sort_attached_list.exit

12:                                               ; preds = %6
  %13 = getelementptr inbounds nuw i8, ptr %.val4, i64 1204
  %14 = load i32, ptr %13, align 4, !tbaa !55
  %.not9.i = icmp ne i32 %14, 0
  %15 = zext i1 %.not9.i to i32
  br label %_sort_attached_list.exit

_sort_attached_list.exit:                         ; preds = %6, %12
  %16 = phi i32 [ %15, %12 ], [ 2, %6 ]
  %17 = getelementptr inbounds nuw i8, ptr %.val4, i64 1136
  %18 = load ptr, ptr %17, align 8, !tbaa !97
  %19 = tail call i64 @gtk_tree_sortable_get_type() #17
  %20 = tail call ptr @g_type_check_instance_cast(ptr noundef %18, i64 noundef %19) #16
  tail call void @gtk_tree_sortable_set_sort_column_id(ptr noundef %20, i32 noundef %16, i32 noundef 0) #16
  %.val = load ptr, ptr %9, align 8, !tbaa !6
  %21 = getelementptr inbounds nuw i8, ptr %.val, i64 1192
  %22 = load i32, ptr %21, align 8, !tbaa !36
  %.not.i = icmp eq i32 %22, 0
  br i1 %.not.i, label %23, label %_sort_dictionary_list.exit

23:                                               ; preds = %_sort_attached_list.exit
  %24 = getelementptr inbounds nuw i8, ptr %.val, i64 1200
  %25 = load i32, ptr %24, align 8, !tbaa !54
  %.not11.i = icmp eq i32 %25, 0
  br i1 %.not11.i, label %26, label %_sort_dictionary_list.exit

26:                                               ; preds = %23
  %27 = getelementptr inbounds nuw i8, ptr %.val, i64 1204
  %28 = load i32, ptr %27, align 4, !tbaa !55
  %.not12.i = icmp ne i32 %28, 0
  %29 = zext i1 %.not12.i to i32
  br label %_sort_dictionary_list.exit

_sort_dictionary_list.exit:                       ; preds = %_sort_attached_list.exit, %23, %26
  %.sink4.i = phi i64 [ 1144, %23 ], [ 1144, %26 ], [ 1152, %_sort_attached_list.exit ]
  %.sink1.i = phi i32 [ 2, %23 ], [ %29, %26 ], [ 0, %_sort_attached_list.exit ]
  %30 = getelementptr inbounds nuw i8, ptr %.val, i64 %.sink4.i
  %31 = load ptr, ptr %30, align 8, !tbaa !47
  %32 = tail call ptr @g_type_check_instance_cast(ptr noundef %31, i64 noundef %19) #16
  tail call void @gtk_tree_sortable_set_sort_column_id(ptr noundef %32, i32 noundef %.sink1.i, i32 noundef 0) #16
  br label %33

33:                                               ; preds = %2, %_sort_dictionary_list.exit
  ret void
}